target datalayout = "e-m:e-p270:32:32-p271:32:32-p272:64:64-i64:64-i128:128-f80:128-n8:16:32:64-S128"
target triple = "x86_64-pc-linux-gnu"

@.str.53 = private unnamed_addr constant [31 x i8] c"../openssl/test/evp_kdf_test.c\00", align 1
@.str.60 = private unnamed_addr constant [7 x i8] c"sha256\00", align 1
@.str.62 = private unnamed_addr constant [7 x i8] c"params\00", align 1
@.str.65 = private unnamed_addr constant [37 x i8] c"EVP_KDF_CTX_set_params(kctx, params)\00", align 1
@.str.82 = private unnamed_addr constant [6 x i8] c"KBKDF\00", align 1
@.str.83 = private unnamed_addr constant [5 x i8] c"kctx\00", align 1
@.str.88 = private unnamed_addr constant [5 x i8] c"blah\00", align 1
@.str.90 = private unnamed_addr constant [4 x i8] c"prf\00", align 1
@.str.91 = private unnamed_addr constant [5 x i8] c"test\00", align 1
@test_kdf_kbkdf_invalid_mac.key = internal global [1 x i8] c"\01", align 1

; Function Attrs: nounwind uwtable
define internal ptr @get_kdfbyname_libctx(ptr noundef %0, ptr noundef %1) #0 {
  %3 = alloca ptr, align 8
  %4 = alloca ptr, align 8
  %5 = alloca ptr, align 8
  %6 = alloca ptr, align 8
  store ptr %0, ptr %3, align 8, !tbaa !11
  store ptr %1, ptr %4, align 8, !tbaa !18
  call void @llvm.lifetime.start.p0(i64 8, ptr %5) #6
  %7 = load ptr, ptr %3, align 8, !tbaa !11
  %8 = load ptr, ptr %4, align 8, !tbaa !18
  %9 = call ptr @EVP_KDF_fetch(ptr noundef %7, ptr noundef %8, ptr noundef null)
  store ptr %9, ptr %5, align 8, !tbaa !26
  call void @llvm.lifetime.start.p0(i64 8, ptr %6) #6
  %10 = load ptr, ptr %5, align 8, !tbaa !26
  %11 = call ptr @EVP_KDF_CTX_new(ptr noundef %10)
  store ptr %11, ptr %6, align 8, !tbaa !8
  %12 = load ptr, ptr %5, align 8, !tbaa !26
  call void @EVP_KDF_free(ptr noundef %12)
  %13 = load ptr, ptr %6, align 8, !tbaa !8
  call void @llvm.lifetime.end.p0(i64 8, ptr %6) #6
  call void @llvm.lifetime.end.p0(i64 8, ptr %5) #6
  ret ptr %13
}

; Function Attrs: nounwind uwtable
define internal ptr @get_kdfbyname(ptr noundef %0) #0 {
  %2 = alloca ptr, align 8
  store ptr %0, ptr %2, align 8, !tbaa !18
  %3 = load ptr, ptr %2, align 8, !tbaa !18
  %4 = call ptr @get_kdfbyname_libctx(ptr noundef null, ptr noundef %3)
  ret ptr %4
}

; Function Attrs: nounwind uwtable
define internal i32 @test_kdf_kbkdf_invalid_mac() #0 {
  %1 = alloca i32, align 4
  %2 = alloca i32, align 4
  %3 = alloca ptr, align 8
  %4 = alloca ptr, align 8
  %5 = alloca i32, align 4
  %6 = alloca i32, align 4
  call void @llvm.lifetime.start.p0(i64 4, ptr %2) #6
  call void @llvm.lifetime.start.p0(i64 8, ptr %3) #6
  call void @llvm.lifetime.start.p0(i64 8, ptr %4) #6
  call void @llvm.lifetime.start.p0(i64 4, ptr %5) #6
  store i32 32, ptr %5, align 4, !tbaa !4
  %7 = call ptr @construct_kbkdf_params(ptr noundef @.str.60, ptr noundef @.str.88, ptr noundef @test_kdf_kbkdf_invalid_mac.key, i64 noundef 1, ptr noundef @.str.90, ptr noundef @.str.91, ptr noundef %5)
  store ptr %7, ptr %4, align 8, !tbaa !13
  %8 = load ptr, ptr %4, align 8, !tbaa !13
  %9 = call i32 @test_ptr(ptr noundef @.str.53, i32 noundef 1186, ptr noundef @.str.62, ptr noundef %8)
  %10 = icmp ne i32 %9, 0
  br i1 %10, label %12, label %11

11:                                               ; preds = %0
  store i32 0, ptr %1, align 4
  store i32 1, ptr %6, align 4
  br label %31

12:                                               ; preds = %0
  %13 = call ptr @get_kdfbyname(ptr noundef @.str.82)
  store ptr %13, ptr %3, align 8, !tbaa !8
  %14 = load ptr, ptr %3, align 8, !tbaa !8
  %15 = call i32 @test_ptr(ptr noundef @.str.53, i32 noundef 1191, ptr noundef @.str.83, ptr noundef %14)
  %16 = icmp ne i32 %15, 0
  br i1 %16, label %17, label %25

17:                                               ; preds = %12
  %18 = load ptr, ptr %3, align 8, !tbaa !8
  %19 = load ptr, ptr %4, align 8, !tbaa !13
  %20 = call i32 @EVP_KDF_CTX_set_params(ptr noundef %18, ptr noundef %19)
  %21 = icmp ne i32 %20, 0
  %22 = zext i1 %21 to i32
  %23 = call i32 @test_false(ptr noundef @.str.53, i32 noundef 1192, ptr noundef @.str.65, i32 noundef %22)
  %24 = icmp ne i32 %23, 0
  br label %25

25:                                               ; preds = %17, %12
  %26 = phi i1 [ false, %12 ], [ %24, %17 ]
  %27 = zext i1 %26 to i32
  store i32 %27, ptr %2, align 4, !tbaa !4
  %28 = load ptr, ptr %3, align 8, !tbaa !8
  call void @EVP_KDF_CTX_free(ptr noundef %28)
  %29 = load ptr, ptr %4, align 8, !tbaa !13
  call void @CRYPTO_free(ptr noundef %29, ptr noundef @.str.53, i32 noundef 1195)
  %30 = load i32, ptr %2, align 4, !tbaa !4
  store i32 %30, ptr %1, align 4
  store i32 1, ptr %6, align 4
  br label %31

31:                                               ; preds = %25, %11
  call void @llvm.lifetime.end.p0(i64 4, ptr %5) #6
  call void @llvm.lifetime.end.p0(i64 8, ptr %4) #6
  call void @llvm.lifetime.end.p0(i64 8, ptr %3) #6
  call void @llvm.lifetime.end.p0(i64 4, ptr %2) #6
  %32 = load i32, ptr %1, align 4
  ret i32 %32
}