; Function Attrs: nounwind uwtable
define internal range(i32 0, 2) i32 @test_kdf_kbkdf_invalid_mac() #0 {
  %1 = alloca i32, align 4
  call void @llvm.lifetime.start.p0(i64 4, ptr nonnull %1) #6
  store i32 32, ptr %1, align 4, !tbaa !4
  %2 = call fastcc ptr @construct_kbkdf_params(ptr noundef nonnull @.str.60, ptr noundef nonnull @.str.88, ptr noundef nonnull @test_kdf_kbkdf_invalid_mac.key, i64 noundef 1, ptr noundef %1)
  %3 = call i32 @test_ptr(ptr noundef nonnull @.str.53, i32 noundef 1186, ptr noundef nonnull @.str.62, ptr noundef %2) #6
  %.not = icmp eq i32 %3, 0
  br i1 %.not, label %17, label %4

4:                                                ; preds = %0
  %5 = call ptr @EVP_KDF_fetch(ptr noundef null, ptr noundef nonnull @.str.82, ptr noundef null) #6
  %6 = call ptr @EVP_KDF_CTX_new(ptr noundef %5) #6
  call void @EVP_KDF_free(ptr noundef %5) #6
  %7 = call i32 @test_ptr(ptr noundef nonnull @.str.53, i32 noundef 1191, ptr noundef nonnull @.str.83, ptr noundef %6) #6
  %.not7 = icmp eq i32 %7, 0
  br i1 %.not7, label %15, label %8

8:                                                ; preds = %4
  %9 = call i32 @EVP_KDF_CTX_set_params(ptr noundef %6, ptr noundef %2) #6
  %10 = icmp ne i32 %9, 0
  %11 = zext i1 %10 to i32
  %12 = call i32 @test_false(ptr noundef nonnull @.str.53, i32 noundef 1192, ptr noundef nonnull @.str.65, i32 noundef %11) #6
  %13 = icmp ne i32 %12, 0
  %14 = zext i1 %13 to i32
  br label %15

15:                                               ; preds = %8, %4
  %16 = phi i32 [ 0, %4 ], [ %14, %8 ]
  call void @EVP_KDF_CTX_free(ptr noundef %6) #6
  call void @CRYPTO_free(ptr noundef %2, ptr noundef nonnull @.str.53, i32 noundef 1195) #6
  br label %17

17:                                               ; preds = %0, %15
  %.0 = phi i32 [ %16, %15 ], [ 0, %0 ]
  call void @llvm.lifetime.end.p0(i64 4, ptr nonnull %1) #6
  ret i32 %.0
}